target datalayout = "e-m:e-p270:32:32-p271:32:32-p272:64:64-i64:64-i128:128-f80:128-n8:16:32:64-S128"
target triple = "x86_64-pc-linux-gnu"

; Function Attrs: inlinehint nounwind uwtable
define internal zeroext i1 @php_is_stream_path(ptr noundef %0) #7 {
  %2 = alloca ptr, align 8
  %3 = alloca ptr, align 8
  store ptr %0, ptr %2, align 8, !tbaa !31
  call void @llvm.lifetime.start.p0(i64 8, ptr %3) #14
  %4 = load ptr, ptr %2, align 8, !tbaa !31
  store ptr %4, ptr %3, align 8, !tbaa !31
  br label %5

5:                                                ; preds = %53, %1
  %6 = load ptr, ptr %3, align 8, !tbaa !31
  %7 = load i8, ptr %6, align 1, !tbaa !34
  %8 = sext i8 %7 to i32
  %9 = icmp sge i32 %8, 97
  br i1 %9, label %10, label %15

10:                                               ; preds = %5
  %11 = load ptr, ptr %3, align 8, !tbaa !31
  %12 = load i8, ptr %11, align 1, !tbaa !34
  %13 = sext i8 %12 to i32
  %14 = icmp sle i32 %13, 122
  br i1 %14, label %50, label %15

15:                                               ; preds = %10, %5
  %16 = load ptr, ptr %3, align 8, !tbaa !31
  %17 = load i8, ptr %16, align 1, !tbaa !34
  %18 = sext i8 %17 to i32
  %19 = icmp sge i32 %18, 65
  br i1 %19, label %20, label %25

20:                                               ; preds = %15
  %21 = load ptr, ptr %3, align 8, !tbaa !31
  %22 = load i8, ptr %21, align 1, !tbaa !34
  %23 = sext i8 %22 to i32
  %24 = icmp sle i32 %23, 90
  br i1 %24, label %50, label %25

25:                                               ; preds = %20, %15
  %26 = load ptr, ptr %3, align 8, !tbaa !31
  %27 = load i8, ptr %26, align 1, !tbaa !34
  %28 = sext i8 %27 to i32
  %29 = icmp sge i32 %28, 48
  br i1 %29, label %30, label %35

30:                                               ; preds = %25
  %31 = load ptr, ptr %3, align 8, !tbaa !31
  %32 = load i8, ptr %31, align 1, !tbaa !34
  %33 = sext i8 %32 to i32
  %34 = icmp sle i32 %33, 57
  br i1 %34, label %50, label %35

35:                                               ; preds = %30, %25
  %36 = load ptr, ptr %3, align 8, !tbaa !31
  %37 = load i8, ptr %36, align 1, !tbaa !34
  %38 = sext i8 %37 to i32
  %39 = icmp eq i32 %38, 43
  br i1 %39, label %50, label %40

40:                                               ; preds = %35
  %41 = load ptr, ptr %3, align 8, !tbaa !31
  %42 = load i8, ptr %41, align 1, !tbaa !34
  %43 = sext i8 %42 to i32
  %44 = icmp eq i32 %43, 45
  br i1 %44, label %50, label %45

45:                                               ; preds = %40
  %46 = load ptr, ptr %3, align 8, !tbaa !31
  %47 = load i8, ptr %46, align 1, !tbaa !34
  %48 = sext i8 %47 to i32
  %49 = icmp eq i32 %48, 46
  br label %50

50:                                               ; preds = %45, %40, %35, %30, %20, %10
  %51 = phi i1 [ true, %40 ], [ true, %35 ], [ true, %30 ], [ true, %20 ], [ true, %10 ], [ %49, %45 ]
  br i1 %51, label %52, label %56

52:                                               ; preds = %50
  br label %53

53:                                               ; preds = %52
  %54 = load ptr, ptr %3, align 8, !tbaa !31
  %55 = getelementptr inbounds nuw i8, ptr %54, i32 1
  store ptr %55, ptr %3, align 8, !tbaa !31
  br label %5

56:                                               ; preds = %50
  %57 = load ptr, ptr %3, align 8, !tbaa !31
  %58 = load ptr, ptr %2, align 8, !tbaa !31
  %59 = icmp ne ptr %57, %58
  br i1 %59, label %60, label %78

60:                                               ; preds = %56
  %61 = load ptr, ptr %3, align 8, !tbaa !31
  %62 = getelementptr inbounds i8, ptr %61, i64 0
  %63 = load i8, ptr %62, align 1, !tbaa !34
  %64 = sext i8 %63 to i32
  %65 = icmp eq i32 %64, 58
  br i1 %65, label %66, label %78

66:                                               ; preds = %60
  %67 = load ptr, ptr %3, align 8, !tbaa !31
  %68 = getelementptr inbounds i8, ptr %67, i64 1
  %69 = load i8, ptr %68, align 1, !tbaa !34
  %70 = sext i8 %69 to i32
  %71 = icmp eq i32 %70, 47
  br i1 %71, label %72, label %78

72:                                               ; preds = %66
  %73 = load ptr, ptr %3, align 8, !tbaa !31
  %74 = getelementptr inbounds i8, ptr %73, i64 2
  %75 = load i8, ptr %74, align 1, !tbaa !34
  %76 = sext i8 %75 to i32
  %77 = icmp eq i32 %76, 47
  br label %78

78:                                               ; preds = %72, %66, %60, %56
  %79 = phi i1 [ false, %66 ], [ false, %60 ], [ false, %56 ], [ %77, %72 ]
  call void @llvm.lifetime.end.p0(i64 8, ptr %3) #14
  ret i1 %79
}